; ModuleID = '5/1065.c'
source_filename = "5/1065.c"
target datalayout = "e-m:e-p270:32:32-p271:32:32-p272:64:64-i64:64-f80:128-n8:16:32:64-S128"
target triple = "x86_64-pc-linux-gnu"

@.str = private unnamed_addr constant [4 x i8] c"%lf\00", align 1
@.str.1 = private unnamed_addr constant [5 x i8] c"%s%s\00", align 1
@.str.2 = private unnamed_addr constant [4 x i8] c"yes\00", align 1
@.str.3 = private unnamed_addr constant [3 x i8] c"no\00", align 1
@.str.4 = private unnamed_addr constant [6 x i8] c"error\00", align 1

; Function Attrs: noinline nounwind uwtable
define dso_local i32 @main() #0 {
  %1 = alloca i32, align 4
  %2 = alloca i32, align 4
  %3 = alloca i32, align 4
  %4 = alloca i32, align 4
  %5 = alloca i32, align 4
  %6 = alloca i32, align 4
  %7 = alloca double, align 8
  %8 = alloca double, align 8
  %9 = alloca [600 x i8], align 16
  %10 = alloca [600 x i8], align 16
  store i32 0, i32* %1, align 4
  store i32 0, i32* %5, align 4
  store i32 0, i32* %6, align 4
  %11 = call i32 (i8*, ...) @__isoc99_scanf(i8* getelementptr inbounds ([4 x i8], [4 x i8]* @.str, i64 0, i64 0), double* %7)
  %12 = call i32 (i8*, ...) @__isoc99_scanf(i8* getelementptr inbounds ([5 x i8], [5 x i8]* @.str.1, i64 0, i64 0), [600 x i8]* %9, [600 x i8]* %10)
  %13 = getelementptr inbounds [600 x i8], [600 x i8]* %9, i64 0, i64 0
  %14 = call i64 @strlen(i8* %13) #3
  %15 = trunc i64 %14 to i32
  store i32 %15, i32* %3, align 4
  %16 = getelementptr inbounds [600 x i8], [600 x i8]* %10, i64 0, i64 0
  %17 = call i64 @strlen(i8* %16) #3
  %18 = trunc i64 %17 to i32
  store i32 %18, i32* %4, align 4
  store i32 0, i32* %2, align 4
  br label %19

19:                                               ; preds = %55, %0
  %20 = load i32, i32* %2, align 4
  %21 = load i32, i32* %3, align 4
  %22 = icmp slt i32 %20, %21
  br i1 %22, label %23, label %58

23:                                               ; preds = %19
  %24 = load i32, i32* %2, align 4
  %25 = sext i32 %24 to i64
  %26 = getelementptr inbounds [600 x i8], [600 x i8]* %9, i64 0, i64 %25
  %27 = load i8, i8* %26, align 1
  %28 = sext i8 %27 to i32
  %29 = icmp ne i32 %28, 65
  br i1 %29, label %30, label %54

30:                                               ; preds = %23
  %31 = load i32, i32* %2, align 4
  %32 = sext i32 %31 to i64
  %33 = getelementptr inbounds [600 x i8], [600 x i8]* %9, i64 0, i64 %32
  %34 = load i8, i8* %33, align 1
  %35 = sext i8 %34 to i32
  %36 = icmp ne i32 %35, 84
  br i1 %36, label %37, label %54

37:                                               ; preds = %30
  %38 = load i32, i32* %2, align 4
  %39 = sext i32 %38 to i64
  %40 = getelementptr inbounds [600 x i8], [600 x i8]* %9, i64 0, i64 %39
  %41 = load i8, i8* %40, align 1
  %42 = sext i8 %41 to i32
  %43 = icmp ne i32 %42, 67
  br i1 %43, label %44, label %54

44:                                               ; preds = %37
  %45 = load i32, i32* %2, align 4
  %46 = sext i32 %45 to i64
  %47 = getelementptr inbounds [600 x i8], [600 x i8]* %9, i64 0, i64 %46
  %48 = load i8, i8* %47, align 1
  %49 = sext i8 %48 to i32
  %50 = icmp ne i32 %49, 71
  br i1 %50, label %51, label %54

51:                                               ; preds = %44
  %52 = load i32, i32* %6, align 4
  %53 = add nsw i32 %52, 1
  store i32 %53, i32* %6, align 4
  br label %54

54:                                               ; preds = %51, %44, %37, %30, %23
  br label %55

55:                                               ; preds = %54
  %56 = load i32, i32* %2, align 4
  %57 = add nsw i32 %56, 1
  store i32 %57, i32* %2, align 4
  br label %19

58:                                               ; preds = %19
  store i32 0, i32* %2, align 4
  br label %59

59:                                               ; preds = %79, %58
  %60 = load i32, i32* %2, align 4
  %61 = load i32, i32* %3, align 4
  %62 = icmp slt i32 %60, %61
  br i1 %62, label %63, label %82

63:                                               ; preds = %59
  %64 = load i32, i32* %2, align 4
  %65 = sext i32 %64 to i64
  %66 = getelementptr inbounds [600 x i8], [600 x i8]* %9, i64 0, i64 %65
  %67 = load i8, i8* %66, align 1
  %68 = sext i8 %67 to i32
  %69 = load i32, i32* %2, align 4
  %70 = sext i32 %69 to i64
  %71 = getelementptr inbounds [600 x i8], [600 x i8]* %10, i64 0, i64 %70
  %72 = load i8, i8* %71, align 1
  %73 = sext i8 %72 to i32
  %74 = icmp eq i32 %68, %73
  br i1 %74, label %75, label %78

75:                                               ; preds = %63
  %76 = load i32, i32* %5, align 4
  %77 = add nsw i32 %76, 1
  store i32 %77, i32* %5, align 4
  br label %78

78:                                               ; preds = %75, %63
  br label %79

79:                                               ; preds = %78
  %80 = load i32, i32* %2, align 4
  %81 = add nsw i32 %80, 1
  store i32 %81, i32* %2, align 4
  br label %59

82:                                               ; preds = %59
  %83 = load i32, i32* %5, align 4
  %84 = sitofp i32 %83 to double
  %85 = fmul double 1.000000e+00, %84
  %86 = load i32, i32* %3, align 4
  %87 = sitofp i32 %86 to double
  %88 = fdiv double %85, %87
  store double %88, double* %8, align 8
  %89 = load i32, i32* %3, align 4
  %90 = load i32, i32* %4, align 4
  %91 = icmp eq i32 %89, %90
  br i1 %91, label %92, label %101

92:                                               ; preds = %82
  %93 = load i32, i32* %6, align 4
  %94 = icmp eq i32 %93, 0
  br i1 %94, label %95, label %101

95:                                               ; preds = %92
  %96 = load double, double* %8, align 8
  %97 = load double, double* %7, align 8
  %98 = fcmp ogt double %96, %97
  br i1 %98, label %99, label %101

99:                                               ; preds = %95
  %100 = call i32 (i8*, ...) @printf(i8* getelementptr inbounds ([4 x i8], [4 x i8]* @.str.2, i64 0, i64 0))
  br label %117

101:                                              ; preds = %95, %92, %82
  %102 = load i32, i32* %3, align 4
  %103 = load i32, i32* %4, align 4
  %104 = icmp eq i32 %102, %103
  br i1 %104, label %105, label %114

105:                                              ; preds = %101
  %106 = load i32, i32* %6, align 4
  %107 = icmp eq i32 %106, 0
  br i1 %107, label %108, label %114

108:                                              ; preds = %105
  %109 = load double, double* %8, align 8
  %110 = load double, double* %7, align 8
  %111 = fcmp ole double %109, %110
  br i1 %111, label %112, label %114

112:                                              ; preds = %108
  %113 = call i32 (i8*, ...) @printf(i8* getelementptr inbounds ([3 x i8], [3 x i8]* @.str.3, i64 0, i64 0))
  br label %116

114:                                              ; preds = %108, %105, %101
  %115 = call i32 (i8*, ...) @printf(i8* getelementptr inbounds ([6 x i8], [6 x i8]* @.str.4, i64 0, i64 0))
  br label %116

116:                                              ; preds = %114, %112
  br label %117

117:                                              ; preds = %116, %99
  ret i32 0
}

declare dso_local i32 @__isoc99_scanf(i8*, ...) #1

; Function Attrs: nounwind readonly
declare dso_local i64 @strlen(i8*) #2

declare dso_local i32 @printf(i8*, ...) #1


!llvm.module.flags = !{!0}
!llvm.ident = !{!1}

!0 = !{i32 1, !"wchar_size", i32 4}
!1 = !{!"clang version 10.0.0-4ubuntu1 "}
